target datalayout = "e-m:e-p270:32:32-p271:32:32-p272:64:64-i64:64-i128:128-f80:128-n8:16:32:64-S128"
target triple = "x86_64-pc-linux-gnu"

%"class.llvm::APInt" = type <{ %union.anon, i32, [4 x i8] }>
%union.anon = type { i64 }

; Function Attrs: mustprogress nounwind uwtable
define linkonce_odr hidden noundef i32 @_ZN4llvm5APInt9whichWordEj(i32 noundef %0) #0 comdat align 2 {
  %2 = alloca i32, align 4
  store i32 %0, ptr %2, align 4
  %3 = load i32, ptr %2, align 4
  %4 = udiv i32 %3, 64
  ret i32 %4
}

; Function Attrs: mustprogress nounwind uwtable
define linkonce_odr hidden noundef i32 @_ZN4llvm5APInt8whichBitEj(i32 noundef %0) #0 comdat align 2 {
  %2 = alloca i32, align 4
  store i32 %0, ptr %2, align 4
  %3 = load i32, ptr %2, align 4
  %4 = urem i32 %3, 64
  ret i32 %4
}

; Function Attrs: mustprogress nounwind uwtable
define linkonce_odr hidden noundef zeroext i1 @_ZNK4llvm5APInt12isSingleWordEv(ptr noundef nonnull align 8 dereferenceable(12) %0) #0 comdat align 2 {
  %2 = alloca ptr, align 8
  store ptr %0, ptr %2, align 8
  %3 = load ptr, ptr %2, align 8
  %4 = getelementptr inbounds nuw %"class.llvm::APInt", ptr %3, i32 0, i32 1
  %5 = load i32, ptr %4, align 8
  %6 = icmp ule i32 %5, 64
  ret i1 %6
}

; Function Attrs: mustprogress nounwind uwtable
define linkonce_odr noundef i64 @_ZN4llvm16maskTrailingOnesImEET_j(i32 noundef %0) #0 comdat {
  %2 = alloca i64, align 8
  %3 = alloca i32, align 4
  %4 = alloca i32, align 4
  store i32 %0, ptr %3, align 4
  store i32 64, ptr %4, align 4
  %5 = load i32, ptr %3, align 4
  %6 = icmp eq i32 %5, 0
  br i1 %6, label %7, label %8

7:                                                ; preds = %1
  store i64 0, ptr %2, align 8
  br label %13

8:                                                ; preds = %1
  %9 = load i32, ptr %3, align 4
  %10 = sub i32 64, %9
  %11 = zext i32 %10 to i64
  %12 = lshr i64 -1, %11
  store i64 %12, ptr %2, align 8
  br label %13

13:                                               ; preds = %8, %7
  %14 = load i64, ptr %2, align 8
  ret i64 %14
}

; Function Attrs: mustprogress nounwind uwtable
define dso_local noundef i64 @_ZNK4llvm5APInt22extractBitsAsZExtValueEjj(ptr noundef nonnull align 8 dereferenceable(12) %0, i32 noundef %1, i32 noundef %2) #0 align 2 {
  %4 = alloca i64, align 8
  %5 = alloca ptr, align 8
  %6 = alloca i32, align 4
  %7 = alloca i32, align 4
  %8 = alloca i64, align 8
  %9 = alloca i32, align 4
  %10 = alloca i32, align 4
  %11 = alloca i32, align 4
  %12 = alloca i64, align 8
  store ptr %0, ptr %5, align 8
  store i32 %1, ptr %6, align 4
  store i32 %2, ptr %7, align 4
  %13 = load ptr, ptr %5, align 8
  %14 = load i32, ptr %6, align 4
  %15 = call noundef i64 @_ZN4llvm16maskTrailingOnesImEET_j(i32 noundef %14)
  store i64 %15, ptr %8, align 8
  %16 = call noundef zeroext i1 @_ZNK4llvm5APInt12isSingleWordEv(ptr noundef nonnull align 8 dereferenceable(12) %13)
  br i1 %16, label %17, label %25

17:                                               ; preds = %3
  %18 = getelementptr inbounds nuw %"class.llvm::APInt", ptr %13, i32 0, i32 0
  %19 = load i64, ptr %18, align 8
  %20 = load i32, ptr %7, align 4
  %21 = zext i32 %20 to i64
  %22 = lshr i64 %19, %21
  %23 = load i64, ptr %8, align 8
  %24 = and i64 %22, %23
  store i64 %24, ptr %4, align 8
  br label %76

25:                                               ; preds = %3
  %26 = load i32, ptr %7, align 4
  %27 = call noundef i32 @_ZN4llvm5APInt8whichBitEj(i32 noundef %26)
  store i32 %27, ptr %9, align 4
  %28 = load i32, ptr %7, align 4
  %29 = call noundef i32 @_ZN4llvm5APInt9whichWordEj(i32 noundef %28)
  store i32 %29, ptr %10, align 4
  %30 = load i32, ptr %7, align 4
  %31 = load i32, ptr %6, align 4
  %32 = add i32 %30, %31
  %33 = sub i32 %32, 1
  %34 = call noundef i32 @_ZN4llvm5APInt9whichWordEj(i32 noundef %33)
  store i32 %34, ptr %11, align 4
  %35 = load i32, ptr %10, align 4
  %36 = load i32, ptr %11, align 4
  %37 = icmp eq i32 %35, %36
  br i1 %37, label %38, label %50

38:                                               ; preds = %25
  %39 = getelementptr inbounds nuw %"class.llvm::APInt", ptr %13, i32 0, i32 0
  %40 = load ptr, ptr %39, align 8
  %41 = load i32, ptr %10, align 4
  %42 = zext i32 %41 to i64
  %43 = getelementptr inbounds i64, ptr %40, i64 %42
  %44 = load i64, ptr %43, align 8
  %45 = load i32, ptr %9, align 4
  %46 = zext i32 %45 to i64
  %47 = lshr i64 %44, %46
  %48 = load i64, ptr %8, align 8
  %49 = and i64 %47, %48
  store i64 %49, ptr %4, align 8
  br label %76

50:                                               ; preds = %25
  %51 = getelementptr inbounds nuw %"class.llvm::APInt", ptr %13, i32 0, i32 0
  %52 = load ptr, ptr %51, align 8
  %53 = load i32, ptr %10, align 4
  %54 = zext i32 %53 to i64
  %55 = getelementptr inbounds i64, ptr %52, i64 %54
  %56 = load i64, ptr %55, align 8
  %57 = load i32, ptr %9, align 4
  %58 = zext i32 %57 to i64
  %59 = lshr i64 %56, %58
  store i64 %59, ptr %12, align 8
  %60 = getelementptr inbounds nuw %"class.llvm::APInt", ptr %13, i32 0, i32 0
  %61 = load ptr, ptr %60, align 8
  %62 = load i32, ptr %11, align 4
  %63 = zext i32 %62 to i64
  %64 = getelementptr inbounds i64, ptr %61, i64 %63
  %65 = load i64, ptr %64, align 8
  %66 = load i32, ptr %9, align 4
  %67 = sub i32 64, %66
  %68 = zext i32 %67 to i64
  %69 = shl i64 %65, %68
  %70 = load i64, ptr %12, align 8
  %71 = or i64 %70, %69
  store i64 %71, ptr %12, align 8
  %72 = load i64, ptr %8, align 8
  %73 = load i64, ptr %12, align 8
  %74 = and i64 %73, %72
  store i64 %74, ptr %12, align 8
  %75 = load i64, ptr %12, align 8
  store i64 %75, ptr %4, align 8
  br label %76

76:                                               ; preds = %50, %38, %17
  %77 = load i64, ptr %4, align 8
  ret i64 %77
}