; Function Attrs: mustprogress nofree norecurse nosync nounwind willreturn memory(read, inaccessiblemem: none) uwtable
define dso_local noundef i64 @_ZNK4llvm5APInt22extractBitsAsZExtValueEjj(ptr noundef nonnull readonly align 8 captures(none) dereferenceable(12) %0, i32 noundef %1, i32 noundef %2) local_unnamed_addr #3 align 2 {
  %4 = getelementptr inbounds nuw i8, ptr %0, i64 8
  %5 = load i32, ptr %4, align 8
  %6 = icmp ult i32 %5, 65
  br i1 %6, label %7, label %11

7:                                                ; preds = %3
  %8 = load i64, ptr %0, align 8
  %9 = zext nneg i32 %2 to i64
  %10 = lshr i64 %8, %9
  br label %32

11:                                               ; preds = %3
  %12 = and i32 %2, 63
  %13 = lshr i32 %2, 6
  %14 = add i32 %1, -1
  %15 = add i32 %14, %2
  %16 = lshr i32 %15, 6
  %17 = icmp eq i32 %13, %16
  %18 = load ptr, ptr %0, align 8
  %19 = zext nneg i32 %13 to i64
  %20 = getelementptr inbounds nuw i64, ptr %18, i64 %19
  %21 = load i64, ptr %20, align 8
  %22 = zext nneg i32 %12 to i64
  %23 = lshr i64 %21, %22
  br i1 %17, label %32, label %24

24:                                               ; preds = %11
  %25 = zext nneg i32 %16 to i64
  %26 = getelementptr inbounds nuw i64, ptr %18, i64 %25
  %27 = load i64, ptr %26, align 8
  %28 = sub nuw nsw i32 64, %12
  %29 = zext nneg i32 %28 to i64
  %30 = shl i64 %27, %29
  %31 = or i64 %30, %23
  br label %32

32:                                               ; preds = %11, %24, %7
  %.pn = phi i64 [ %10, %7 ], [ %31, %24 ], [ %23, %11 ]
  %33 = icmp eq i32 %1, 0
  %34 = sub i32 64, %1
  %35 = zext nneg i32 %34 to i64
  %36 = lshr i64 -1, %35
  %.0.i = select i1 %33, i64 0, i64 %36
  %.0 = and i64 %.pn, %.0.i
  ret i64 %.0
}